; ModuleID = '58/1305.c'
source_filename = "58/1305.c"
target datalayout = "e-m:e-p270:32:32-p271:32:32-p272:64:64-i64:64-f80:128-n8:16:32:64-S128"
target triple = "x86_64-pc-linux-gnu"

@.str = private unnamed_addr constant [5 x i8] c"%d%c\00", align 1
@.str.1 = private unnamed_addr constant [3 x i8] c"0\0A\00", align 1
@.str.2 = private unnamed_addr constant [3 x i8] c"1\0A\00", align 1

; Function Attrs: noinline nounwind uwtable
define dso_local i32 @main() #0 {
  %1 = alloca i32, align 4
  %2 = alloca i32, align 4
  %3 = alloca i32, align 4
  %4 = alloca i32, align 4
  %5 = alloca i32, align 4
  %6 = alloca [800 x [81 x i8]], align 16
  %7 = alloca i8, align 1
  %8 = alloca i32, align 4
  %9 = alloca i32, align 4
  store i32 0, i32* %1, align 4
  store i32 0, i32* %3, align 4
  %10 = call i32 (i8*, ...) @__isoc99_scanf(i8* getelementptr inbounds ([5 x i8], [5 x i8]* @.str, i64 0, i64 0), i32* %2, i8* %7)
  store i32 0, i32* %5, align 4
  br label %11

11:                                               ; preds = %21, %0
  %12 = load i32, i32* %5, align 4
  %13 = load i32, i32* %2, align 4
  %14 = icmp slt i32 %12, %13
  br i1 %14, label %15, label %24

15:                                               ; preds = %11
  %16 = load i32, i32* %5, align 4
  %17 = sext i32 %16 to i64
  %18 = getelementptr inbounds [800 x [81 x i8]], [800 x [81 x i8]]* %6, i64 0, i64 %17
  %19 = getelementptr inbounds [81 x i8], [81 x i8]* %18, i64 0, i64 0
  %20 = call i32 (i8*, ...) bitcast (i32 (...)* @gets to i32 (i8*, ...)*)(i8* %19)
  br label %21

21:                                               ; preds = %15
  %22 = load i32, i32* %5, align 4
  %23 = add nsw i32 %22, 1
  store i32 %23, i32* %5, align 4
  br label %11

24:                                               ; preds = %11
  store i32 0, i32* %8, align 4
  br label %25

25:                                               ; preds = %169, %24
  %26 = load i32, i32* %8, align 4
  %27 = load i32, i32* %2, align 4
  %28 = icmp slt i32 %26, %27
  br i1 %28, label %29, label %172

29:                                               ; preds = %25
  %30 = load i32, i32* %8, align 4
  %31 = sext i32 %30 to i64
  %32 = getelementptr inbounds [800 x [81 x i8]], [800 x [81 x i8]]* %6, i64 0, i64 %31
  %33 = getelementptr inbounds [81 x i8], [81 x i8]* %32, i64 0, i64 0
  %34 = load i8, i8* %33, align 1
  %35 = sext i8 %34 to i32
  %36 = icmp eq i32 %35, 95
  br i1 %36, label %69, label %37

37:                                               ; preds = %29
  %38 = load i32, i32* %8, align 4
  %39 = sext i32 %38 to i64
  %40 = getelementptr inbounds [800 x [81 x i8]], [800 x [81 x i8]]* %6, i64 0, i64 %39
  %41 = getelementptr inbounds [81 x i8], [81 x i8]* %40, i64 0, i64 0
  %42 = load i8, i8* %41, align 1
  %43 = sext i8 %42 to i32
  %44 = icmp sge i32 %43, 97
  br i1 %44, label %45, label %53

45:                                               ; preds = %37
  %46 = load i32, i32* %8, align 4
  %47 = sext i32 %46 to i64
  %48 = getelementptr inbounds [800 x [81 x i8]], [800 x [81 x i8]]* %6, i64 0, i64 %47
  %49 = getelementptr inbounds [81 x i8], [81 x i8]* %48, i64 0, i64 0
  %50 = load i8, i8* %49, align 1
  %51 = sext i8 %50 to i32
  %52 = icmp sle i32 %51, 122
  br i1 %52, label %69, label %53

53:                                               ; preds = %45, %37
  %54 = load i32, i32* %8, align 4
  %55 = sext i32 %54 to i64
  %56 = getelementptr inbounds [800 x [81 x i8]], [800 x [81 x i8]]* %6, i64 0, i64 %55
  %57 = getelementptr inbounds [81 x i8], [81 x i8]* %56, i64 0, i64 0
  %58 = load i8, i8* %57, align 1
  %59 = sext i8 %58 to i32
  %60 = icmp sge i32 %59, 65
  br i1 %60, label %61, label %158

61:                                               ; preds = %53
  %62 = load i32, i32* %8, align 4
  %63 = sext i32 %62 to i64
  %64 = getelementptr inbounds [800 x [81 x i8]], [800 x [81 x i8]]* %6, i64 0, i64 %63
  %65 = getelementptr inbounds [81 x i8], [81 x i8]* %64, i64 0, i64 0
  %66 = load i8, i8* %65, align 1
  %67 = sext i8 %66 to i32
  %68 = icmp sle i32 %67, 90
  br i1 %68, label %69, label %158

69:                                               ; preds = %61, %45, %29
  %70 = load i32, i32* %8, align 4
  %71 = sext i32 %70 to i64
  %72 = getelementptr inbounds [800 x [81 x i8]], [800 x [81 x i8]]* %6, i64 0, i64 %71
  %73 = getelementptr inbounds [81 x i8], [81 x i8]* %72, i64 0, i64 0
  %74 = call i64 @strlen(i8* %73) #3
  %75 = trunc i64 %74 to i32
  store i32 %75, i32* %4, align 4
  store i32 0, i32* %9, align 4
  br label %76

76:                                               ; preds = %154, %69
  %77 = load i32, i32* %9, align 4
  %78 = load i32, i32* %4, align 4
  %79 = icmp slt i32 %77, %78
  br i1 %79, label %80, label %157

80:                                               ; preds = %76
  %81 = load i32, i32* %8, align 4
  %82 = sext i32 %81 to i64
  %83 = getelementptr inbounds [800 x [81 x i8]], [800 x [81 x i8]]* %6, i64 0, i64 %82
  %84 = load i32, i32* %9, align 4
  %85 = sext i32 %84 to i64
  %86 = getelementptr inbounds [81 x i8], [81 x i8]* %83, i64 0, i64 %85
  %87 = load i8, i8* %86, align 1
  %88 = sext i8 %87 to i32
  %89 = icmp eq i32 %88, 95
  br i1 %89, label %150, label %90

90:                                               ; preds = %80
  %91 = load i32, i32* %8, align 4
  %92 = sext i32 %91 to i64
  %93 = getelementptr inbounds [800 x [81 x i8]], [800 x [81 x i8]]* %6, i64 0, i64 %92
  %94 = load i32, i32* %9, align 4
  %95 = sext i32 %94 to i64
  %96 = getelementptr inbounds [81 x i8], [81 x i8]* %93, i64 0, i64 %95
  %97 = load i8, i8* %96, align 1
  %98 = sext i8 %97 to i32
  %99 = icmp sge i32 %98, 97
  br i1 %99, label %100, label %110

100:                                              ; preds = %90
  %101 = load i32, i32* %8, align 4
  %102 = sext i32 %101 to i64
  %103 = getelementptr inbounds [800 x [81 x i8]], [800 x [81 x i8]]* %6, i64 0, i64 %102
  %104 = load i32, i32* %9, align 4
  %105 = sext i32 %104 to i64
  %106 = getelementptr inbounds [81 x i8], [81 x i8]* %103, i64 0, i64 %105
  %107 = load i8, i8* %106, align 1
  %108 = sext i8 %107 to i32
  %109 = icmp sle i32 %108, 122
  br i1 %109, label %150, label %110

110:                                              ; preds = %100, %90
  %111 = load i32, i32* %8, align 4
  %112 = sext i32 %111 to i64
  %113 = getelementptr inbounds [800 x [81 x i8]], [800 x [81 x i8]]* %6, i64 0, i64 %112
  %114 = load i32, i32* %9, align 4
  %115 = sext i32 %114 to i64
  %116 = getelementptr inbounds [81 x i8], [81 x i8]* %113, i64 0, i64 %115
  %117 = load i8, i8* %116, align 1
  %118 = sext i8 %117 to i32
  %119 = icmp sge i32 %118, 65
  br i1 %119, label %120, label %130

120:                                              ; preds = %110
  %121 = load i32, i32* %8, align 4
  %122 = sext i32 %121 to i64
  %123 = getelementptr inbounds [800 x [81 x i8]], [800 x [81 x i8]]* %6, i64 0, i64 %122
  %124 = load i32, i32* %9, align 4
  %125 = sext i32 %124 to i64
  %126 = getelementptr inbounds [81 x i8], [81 x i8]* %123, i64 0, i64 %125
  %127 = load i8, i8* %126, align 1
  %128 = sext i8 %127 to i32
  %129 = icmp sle i32 %128, 90
  br i1 %129, label %150, label %130

130:                                              ; preds = %120, %110
  %131 = load i32, i32* %8, align 4
  %132 = sext i32 %131 to i64
  %133 = getelementptr inbounds [800 x [81 x i8]], [800 x [81 x i8]]* %6, i64 0, i64 %132
  %134 = load i32, i32* %9, align 4
  %135 = sext i32 %134 to i64
  %136 = getelementptr inbounds [81 x i8], [81 x i8]* %133, i64 0, i64 %135
  %137 = load i8, i8* %136, align 1
  %138 = sext i8 %137 to i32
  %139 = icmp sle i32 %138, 57
  br i1 %139, label %140, label %151

140:                                              ; preds = %130
  %141 = load i32, i32* %8, align 4
  %142 = sext i32 %141 to i64
  %143 = getelementptr inbounds [800 x [81 x i8]], [800 x [81 x i8]]* %6, i64 0, i64 %142
  %144 = load i32, i32* %9, align 4
  %145 = sext i32 %144 to i64
  %146 = getelementptr inbounds [81 x i8], [81 x i8]* %143, i64 0, i64 %145
  %147 = load i8, i8* %146, align 1
  %148 = sext i8 %147 to i32
  %149 = icmp sge i32 %148, 48
  br i1 %149, label %150, label %151

150:                                              ; preds = %140, %120, %100, %80
  br label %154

151:                                              ; preds = %140, %130
  %152 = load i32, i32* %3, align 4
  %153 = add nsw i32 %152, 1
  store i32 %153, i32* %3, align 4
  br label %157

154:                                              ; preds = %150
  %155 = load i32, i32* %9, align 4
  %156 = add nsw i32 %155, 1
  store i32 %156, i32* %9, align 4
  br label %76

157:                                              ; preds = %151, %76
  br label %161

158:                                              ; preds = %61, %53
  %159 = load i32, i32* %3, align 4
  %160 = add nsw i32 %159, 1
  store i32 %160, i32* %3, align 4
  br label %161

161:                                              ; preds = %158, %157
  %162 = load i32, i32* %3, align 4
  %163 = icmp ne i32 %162, 0
  br i1 %163, label %164, label %166

164:                                              ; preds = %161
  %165 = call i32 (i8*, ...) @printf(i8* getelementptr inbounds ([3 x i8], [3 x i8]* @.str.1, i64 0, i64 0))
  br label %168

166:                                              ; preds = %161
  %167 = call i32 (i8*, ...) @printf(i8* getelementptr inbounds ([3 x i8], [3 x i8]* @.str.2, i64 0, i64 0))
  br label %168

168:                                              ; preds = %166, %164
  store i32 0, i32* %4, align 4
  store i32 0, i32* %3, align 4
  br label %169

169:                                              ; preds = %168
  %170 = load i32, i32* %8, align 4
  %171 = add nsw i32 %170, 1
  store i32 %171, i32* %8, align 4
  br label %25

172:                                              ; preds = %25
  ret i32 0
}

declare dso_local i32 @__isoc99_scanf(i8*, ...) #1

declare dso_local i32 @gets(...) #1

; Function Attrs: nounwind readonly
declare dso_local i64 @strlen(i8*) #2

declare dso_local i32 @printf(i8*, ...) #1


!llvm.module.flags = !{!0}
!llvm.ident = !{!1}

!0 = !{i32 1, !"wchar_size", i32 4}
!1 = !{!"clang version 10.0.0-4ubuntu1 "}
