; ModuleID = 'source-C-CXX/57/1305.c'
source_filename = "source-C-CXX/57/1305.c"
target datalayout = "e-m:e-p270:32:32-p271:32:32-p272:64:64-i64:64-f80:128-n8:16:32:64-S128"
target triple = "x86_64-pc-linux-gnu"

@.str = private unnamed_addr constant [5 x i8] c"%d%c\00", align 1
@str = private unnamed_addr constant [2 x i8] c"1\00", align 1
@str.3 = private unnamed_addr constant [2 x i8] c"0\00", align 1

; Function Attrs: nounwind sspstrong uwtable
define dso_local i32 @main() local_unnamed_addr #0 {
  %1 = alloca i32, align 4
  %2 = alloca [800 x [81 x i8]], align 16
  %3 = alloca i8, align 1
  %4 = bitcast i32* %1 to i8*
  call void @llvm.lifetime.start.p0i8(i64 4, i8* nonnull %4) #6
  %5 = getelementptr inbounds [800 x [81 x i8]], [800 x [81 x i8]]* %2, i64 0, i64 0, i64 0
  call void @llvm.lifetime.start.p0i8(i64 64800, i8* nonnull %5) #6
  call void @llvm.lifetime.start.p0i8(i64 1, i8* nonnull %3) #6
  %6 = call i32 (i8*, ...) @__isoc99_scanf(i8* getelementptr inbounds ([5 x i8], [5 x i8]* @.str, i64 0, i64 0), i32* nonnull %1, i8* nonnull %3)
  %7 = load i32, i32* %1, align 4, !tbaa !5
  %8 = icmp sgt i32 %7, 0
  br i1 %8, label %11, label %19

9:                                                ; preds = %11
  %10 = icmp sgt i32 %16, 0
  br i1 %10, label %20, label %19

11:                                               ; preds = %0, %11
  %12 = phi i64 [ %15, %11 ], [ 0, %0 ]
  %13 = getelementptr inbounds [800 x [81 x i8]], [800 x [81 x i8]]* %2, i64 0, i64 %12, i64 0
  %14 = call i32 (i8*, ...) bitcast (i32 (...)* @gets to i32 (i8*, ...)*)(i8* nonnull %13) #6
  %15 = add nuw nsw i64 %12, 1
  %16 = load i32, i32* %1, align 4, !tbaa !5
  %17 = sext i32 %16 to i64
  %18 = icmp slt i64 %15, %17
  br i1 %18, label %11, label %9, !llvm.loop !9

19:                                               ; preds = %58, %0, %9
  call void @llvm.lifetime.end.p0i8(i64 1, i8* nonnull %3) #6
  call void @llvm.lifetime.end.p0i8(i64 64800, i8* nonnull %5) #6
  call void @llvm.lifetime.end.p0i8(i64 4, i8* nonnull %4) #6
  ret i32 0

20:                                               ; preds = %9, %58
  %21 = phi i64 [ %61, %58 ], [ 0, %9 ]
  %22 = getelementptr inbounds [800 x [81 x i8]], [800 x [81 x i8]]* %2, i64 0, i64 %21, i64 0
  %23 = load i8, i8* %22, align 1, !tbaa !11
  %24 = icmp eq i8 %23, 95
  %25 = and i8 %23, -33
  %26 = add i8 %25, -65
  %27 = icmp ult i8 %26, 26
  %28 = or i1 %27, %24
  br i1 %28, label %29, label %58

29:                                               ; preds = %20
  %30 = call i64 @strlen(i8* noundef nonnull %22) #7
  %31 = trunc i64 %30 to i32
  %32 = icmp sgt i32 %31, 0
  br i1 %32, label %33, label %58

33:                                               ; preds = %29
  %34 = and i64 %30, 4294967295
  %35 = icmp eq i8 %23, 95
  %36 = and i8 %23, -33
  %37 = add i8 %36, -65
  %38 = icmp ult i8 %37, 26
  %39 = or i1 %38, %35
  %40 = add i8 %23, -48
  %41 = icmp ult i8 %40, 10
  %42 = or i1 %39, %41
  br i1 %42, label %43, label %58

43:                                               ; preds = %33, %46
  %44 = phi i64 [ %57, %46 ], [ 1, %33 ]
  %45 = icmp eq i64 %44, %34
  br i1 %45, label %58, label %46, !llvm.loop !12

46:                                               ; preds = %43
  %47 = getelementptr inbounds [800 x [81 x i8]], [800 x [81 x i8]]* %2, i64 0, i64 %21, i64 %44
  %48 = load i8, i8* %47, align 1, !tbaa !11
  %49 = icmp eq i8 %48, 95
  %50 = and i8 %48, -33
  %51 = add i8 %50, -65
  %52 = icmp ult i8 %51, 26
  %53 = or i1 %52, %49
  %54 = add i8 %48, -48
  %55 = icmp ult i8 %54, 10
  %56 = or i1 %53, %55
  %57 = add nuw nsw i64 %44, 1
  br i1 %56, label %43, label %58

58:                                               ; preds = %46, %43, %33, %29, %20
  %59 = phi i8* [ getelementptr inbounds ([2 x i8], [2 x i8]* @str.3, i64 0, i64 0), %20 ], [ getelementptr inbounds ([2 x i8], [2 x i8]* @str, i64 0, i64 0), %29 ], [ getelementptr inbounds ([2 x i8], [2 x i8]* @str.3, i64 0, i64 0), %33 ], [ getelementptr inbounds ([2 x i8], [2 x i8]* @str, i64 0, i64 0), %43 ], [ getelementptr inbounds ([2 x i8], [2 x i8]* @str.3, i64 0, i64 0), %46 ]
  %60 = call i32 @puts(i8* nonnull dereferenceable(1) %59)
  %61 = add nuw nsw i64 %21, 1
  %62 = load i32, i32* %1, align 4, !tbaa !5
  %63 = sext i32 %62 to i64
  %64 = icmp slt i64 %61, %63
  br i1 %64, label %20, label %19, !llvm.loop !13
}

; Function Attrs: argmemonly mustprogress nofree nosync nounwind willreturn
declare void @llvm.lifetime.start.p0i8(i64 immarg, i8* nocapture) #1

; Function Attrs: nofree nounwind
declare noundef i32 @__isoc99_scanf(i8* nocapture noundef readonly, ...) local_unnamed_addr #2

declare i32 @gets(...) local_unnamed_addr #3

; Function Attrs: argmemonly mustprogress nofree nounwind readonly willreturn
declare i64 @strlen(i8* nocapture) local_unnamed_addr #4

; Function Attrs: argmemonly mustprogress nofree nosync nounwind willreturn
declare void @llvm.lifetime.end.p0i8(i64 immarg, i8* nocapture) #1

; Function Attrs: nofree nounwind
declare noundef i32 @puts(i8* nocapture noundef readonly) local_unnamed_addr #5


!llvm.module.flags = !{!0, !1, !2, !3}
!llvm.ident = !{!4}

!0 = !{i32 1, !"wchar_size", i32 4}
!1 = !{i32 7, !"PIC Level", i32 2}
!2 = !{i32 7, !"PIE Level", i32 2}
!3 = !{i32 7, !"uwtable", i32 1}
!4 = !{!"clang version 13.0.0"}
!5 = !{!6, !6, i64 0}
!6 = !{!"int", !7, i64 0}
!7 = !{!"omnipotent char", !8, i64 0}
!8 = !{!"Simple C/C++ TBAA"}
!9 = distinct !{!9, !10}
!10 = !{!"llvm.loop.mustprogress"}
!11 = !{!7, !7, i64 0}
!12 = distinct !{!12, !10}
!13 = distinct !{!13, !10}
